target datalayout = "e-m:e-p270:32:32-p271:32:32-p272:64:64-i64:64-i128:128-f80:128-n8:16:32:64-S128"
target triple = "x86_64-pc-linux-gnu"

%struct.PatternInfoArray = type { ptr, i64 }
%struct.PQExpBufferData = type { ptr, i64, i64 }
%struct.PatternInfo = type { ptr, ptr, ptr, ptr, i8, i8, i8 }

@.str.155 = private unnamed_addr constant [51 x i8] c"improper relation name (too many dotted names): %s\00", align 1

; Function Attrs: nounwind uwtable
define internal ptr @extend_pattern_info_array(ptr noundef %0) #0 {
  %2 = alloca ptr, align 8
  %3 = alloca ptr, align 8
  store ptr %0, ptr %2, align 8
  call void @llvm.lifetime.start.p0(i64 8, ptr %3) #10
  %4 = load ptr, ptr %2, align 8
  %5 = getelementptr inbounds nuw %struct.PatternInfoArray, ptr %4, i32 0, i32 1
  %6 = load i64, ptr %5, align 8
  %7 = add i64 %6, 1
  store i64 %7, ptr %5, align 8
  %8 = load ptr, ptr %2, align 8
  %9 = getelementptr inbounds nuw %struct.PatternInfoArray, ptr %8, i32 0, i32 0
  %10 = load ptr, ptr %9, align 8
  %11 = load ptr, ptr %2, align 8
  %12 = getelementptr inbounds nuw %struct.PatternInfoArray, ptr %11, i32 0, i32 1
  %13 = load i64, ptr %12, align 8
  %14 = mul i64 %13, 40
  %15 = call ptr @pg_realloc(ptr noundef %10, i64 noundef %14)
  %16 = load ptr, ptr %2, align 8
  %17 = getelementptr inbounds nuw %struct.PatternInfoArray, ptr %16, i32 0, i32 0
  store ptr %15, ptr %17, align 8
  %18 = load ptr, ptr %2, align 8
  %19 = getelementptr inbounds nuw %struct.PatternInfoArray, ptr %18, i32 0, i32 0
  %20 = load ptr, ptr %19, align 8
  %21 = load ptr, ptr %2, align 8
  %22 = getelementptr inbounds nuw %struct.PatternInfoArray, ptr %21, i32 0, i32 1
  %23 = load i64, ptr %22, align 8
  %24 = sub i64 %23, 1
  %25 = getelementptr inbounds nuw %struct.PatternInfo, ptr %20, i64 %24
  store ptr %25, ptr %3, align 8
  %26 = load ptr, ptr %3, align 8
  call void @llvm.memset.p0.i64(ptr align 8 %26, i8 0, i64 40, i1 false)
  %27 = load ptr, ptr %3, align 8
  call void @llvm.lifetime.end.p0(i64 8, ptr %3) #10
  ret ptr %27
}

; Function Attrs: nounwind uwtable
define internal void @append_relation_pattern_helper(ptr noundef %0, ptr noundef %1, i32 noundef %2, i1 noundef zeroext %3, i1 noundef zeroext %4) #0 {
  %6 = alloca ptr, align 8
  %7 = alloca ptr, align 8
  %8 = alloca i32, align 4
  %9 = alloca i8, align 1
  %10 = alloca i8, align 1
  %11 = alloca %struct.PQExpBufferData, align 8
  %12 = alloca %struct.PQExpBufferData, align 8
  %13 = alloca %struct.PQExpBufferData, align 8
  %14 = alloca i32, align 4
  %15 = alloca ptr, align 8
  store ptr %0, ptr %6, align 8
  store ptr %1, ptr %7, align 8
  store i32 %2, ptr %8, align 4
  %16 = zext i1 %3 to i8
  store i8 %16, ptr %9, align 1
  %17 = zext i1 %4 to i8
  store i8 %17, ptr %10, align 1
  call void @llvm.lifetime.start.p0(i64 24, ptr %11) #10
  call void @llvm.lifetime.start.p0(i64 24, ptr %12) #10
  call void @llvm.lifetime.start.p0(i64 24, ptr %13) #10
  call void @llvm.lifetime.start.p0(i64 4, ptr %14) #10
  call void @llvm.lifetime.start.p0(i64 8, ptr %15) #10
  %18 = load ptr, ptr %6, align 8
  %19 = call ptr @extend_pattern_info_array(ptr noundef %18)
  store ptr %19, ptr %15, align 8
  call void @initPQExpBuffer(ptr noundef %11)
  call void @initPQExpBuffer(ptr noundef %12)
  call void @initPQExpBuffer(ptr noundef %13)
  %20 = load i32, ptr %8, align 4
  %21 = load ptr, ptr %7, align 8
  call void @patternToSQLRegex(i32 noundef %20, ptr noundef %11, ptr noundef %12, ptr noundef %13, ptr noundef %21, i1 noundef zeroext false, i1 noundef zeroext false, ptr noundef %14)
  %22 = load i32, ptr %14, align 4
  %23 = icmp sgt i32 %22, 2
  br i1 %23, label %24, label %26

24:                                               ; preds = %5
  %25 = load ptr, ptr %7, align 8
  call void (i32, i32, ptr, ...) @pg_log_generic(i32 noundef 4, i32 noundef 0, ptr noundef @.str.155, ptr noundef %25)
  call void @exit(i32 noundef 2) #11
  unreachable

26:                                               ; preds = %5
  %27 = load ptr, ptr %7, align 8
  %28 = load ptr, ptr %15, align 8
  %29 = getelementptr inbounds nuw %struct.PatternInfo, ptr %28, i32 0, i32 0
  store ptr %27, ptr %29, align 8
  %30 = getelementptr inbounds nuw %struct.PQExpBufferData, ptr %11, i32 0, i32 0
  %31 = load ptr, ptr %30, align 8
  %32 = getelementptr inbounds i8, ptr %31, i64 0
  %33 = load i8, ptr %32, align 1
  %34 = icmp ne i8 %33, 0
  br i1 %34, label %35, label %41

35:                                               ; preds = %26
  store i8 1, ptr @opts, align 8
  %36 = getelementptr inbounds nuw %struct.PQExpBufferData, ptr %11, i32 0, i32 0
  %37 = load ptr, ptr %36, align 8
  %38 = call ptr @pstrdup(ptr noundef %37)
  %39 = load ptr, ptr %15, align 8
  %40 = getelementptr inbounds nuw %struct.PatternInfo, ptr %39, i32 0, i32 1
  store ptr %38, ptr %40, align 8
  br label %41

41:                                               ; preds = %35, %26
  %42 = getelementptr inbounds nuw %struct.PQExpBufferData, ptr %12, i32 0, i32 0
  %43 = load ptr, ptr %42, align 8
  %44 = getelementptr inbounds i8, ptr %43, i64 0
  %45 = load i8, ptr %44, align 1
  %46 = icmp ne i8 %45, 0
  br i1 %46, label %47, label %53

47:                                               ; preds = %41
  %48 = getelementptr inbounds nuw %struct.PQExpBufferData, ptr %12, i32 0, i32 0
  %49 = load ptr, ptr %48, align 8
  %50 = call ptr @pstrdup(ptr noundef %49)
  %51 = load ptr, ptr %15, align 8
  %52 = getelementptr inbounds nuw %struct.PatternInfo, ptr %51, i32 0, i32 2
  store ptr %50, ptr %52, align 8
  br label %53

53:                                               ; preds = %47, %41
  %54 = getelementptr inbounds nuw %struct.PQExpBufferData, ptr %13, i32 0, i32 0
  %55 = load ptr, ptr %54, align 8
  %56 = getelementptr inbounds i8, ptr %55, i64 0
  %57 = load i8, ptr %56, align 1
  %58 = icmp ne i8 %57, 0
  br i1 %58, label %59, label %65

59:                                               ; preds = %53
  %60 = getelementptr inbounds nuw %struct.PQExpBufferData, ptr %13, i32 0, i32 0
  %61 = load ptr, ptr %60, align 8
  %62 = call ptr @pstrdup(ptr noundef %61)
  %63 = load ptr, ptr %15, align 8
  %64 = getelementptr inbounds nuw %struct.PatternInfo, ptr %63, i32 0, i32 3
  store ptr %62, ptr %64, align 8
  br label %65

65:                                               ; preds = %59, %53
  call void @termPQExpBuffer(ptr noundef %11)
  call void @termPQExpBuffer(ptr noundef %12)
  call void @termPQExpBuffer(ptr noundef %13)
  %66 = load i8, ptr %9, align 1, !range !6, !noundef !7
  %67 = trunc i8 %66 to i1
  %68 = load ptr, ptr %15, align 8
  %69 = getelementptr inbounds nuw %struct.PatternInfo, ptr %68, i32 0, i32 4
  %70 = zext i1 %67 to i8
  store i8 %70, ptr %69, align 8
  %71 = load i8, ptr %10, align 1, !range !6, !noundef !7
  %72 = trunc i8 %71 to i1
  %73 = load ptr, ptr %15, align 8
  %74 = getelementptr inbounds nuw %struct.PatternInfo, ptr %73, i32 0, i32 5
  %75 = zext i1 %72 to i8
  store i8 %75, ptr %74, align 1
  call void @llvm.lifetime.end.p0(i64 8, ptr %15) #10
  call void @llvm.lifetime.end.p0(i64 4, ptr %14) #10
  call void @llvm.lifetime.end.p0(i64 24, ptr %13) #10
  call void @llvm.lifetime.end.p0(i64 24, ptr %12) #10
  call void @llvm.lifetime.end.p0(i64 24, ptr %11) #10
  ret void
}