; Function Attrs: nounwind uwtable
define internal fastcc void @append_relation_pattern_helper(ptr noundef captures(none) %0, ptr noundef %1, i32 noundef %2, i1 noundef zeroext %3, i1 noundef zeroext %4) unnamed_addr #0 {
  %6 = alloca %struct.PQExpBufferData, align 8
  %7 = alloca %struct.PQExpBufferData, align 8
  %8 = alloca %struct.PQExpBufferData, align 8
  %9 = alloca i32, align 4
  call void @llvm.lifetime.start.p0(i64 24, ptr nonnull %6) #11
  call void @llvm.lifetime.start.p0(i64 24, ptr nonnull %7) #11
  call void @llvm.lifetime.start.p0(i64 24, ptr nonnull %8) #11
  call void @llvm.lifetime.start.p0(i64 4, ptr nonnull %9) #11
  %10 = getelementptr inbounds nuw i8, ptr %0, i64 8
  %11 = load i64, ptr %10, align 8
  %12 = add i64 %11, 1
  store i64 %12, ptr %10, align 8
  %13 = load ptr, ptr %0, align 8
  %14 = mul i64 %12, 40
  %15 = tail call ptr @pg_realloc(ptr noundef %13, i64 noundef %14) #11
  store ptr %15, ptr %0, align 8
  %16 = load i64, ptr %10, align 8
  %17 = getelementptr %struct.PatternInfo, ptr %15, i64 %16
  %18 = getelementptr i8, ptr %17, i64 -40
  tail call void @llvm.memset.p0.i64(ptr noundef nonnull align 8 dereferenceable(40) %18, i8 0, i64 40, i1 false)
  call void @initPQExpBuffer(ptr noundef nonnull %6) #11
  call void @initPQExpBuffer(ptr noundef nonnull %7) #11
  call void @initPQExpBuffer(ptr noundef nonnull %8) #11
  call void @patternToSQLRegex(i32 noundef %2, ptr noundef nonnull %6, ptr noundef nonnull %7, ptr noundef nonnull %8, ptr noundef %1, i1 noundef zeroext false, i1 noundef zeroext false, ptr noundef nonnull %9) #11
  %19 = load i32, ptr %9, align 4
  %20 = icmp sgt i32 %19, 2
  br i1 %20, label %21, label %22

21:                                               ; preds = %5
  call void (i32, i32, ptr, ...) @pg_log_generic(i32 noundef 4, i32 noundef 0, ptr noundef nonnull @.str.155, ptr noundef %1) #11
  call void @exit(i32 noundef 2) #12
  unreachable

22:                                               ; preds = %5
  store ptr %1, ptr %18, align 8
  %23 = load ptr, ptr %6, align 8
  %24 = load i8, ptr %23, align 1
  %.not = icmp eq i8 %24, 0
  br i1 %.not, label %28, label %25

25:                                               ; preds = %22
  store i8 1, ptr @opts, align 8
  %26 = call ptr @pstrdup(ptr noundef nonnull %23) #11
  %27 = getelementptr i8, ptr %17, i64 -32
  store ptr %26, ptr %27, align 8
  br label %28

28:                                               ; preds = %25, %22
  %29 = load ptr, ptr %7, align 8
  %30 = load i8, ptr %29, align 1
  %.not12 = icmp eq i8 %30, 0
  br i1 %.not12, label %34, label %31

31:                                               ; preds = %28
  %32 = call ptr @pstrdup(ptr noundef nonnull %29) #11
  %33 = getelementptr i8, ptr %17, i64 -24
  store ptr %32, ptr %33, align 8
  br label %34

34:                                               ; preds = %31, %28
  %35 = load ptr, ptr %8, align 8
  %36 = load i8, ptr %35, align 1
  %.not13 = icmp eq i8 %36, 0
  br i1 %.not13, label %40, label %37

37:                                               ; preds = %34
  %38 = call ptr @pstrdup(ptr noundef nonnull %35) #11
  %39 = getelementptr i8, ptr %17, i64 -16
  store ptr %38, ptr %39, align 8
  br label %40

40:                                               ; preds = %37, %34
  %41 = zext i1 %4 to i8
  %42 = zext i1 %3 to i8
  call void @termPQExpBuffer(ptr noundef nonnull %6) #11
  call void @termPQExpBuffer(ptr noundef nonnull %7) #11
  call void @termPQExpBuffer(ptr noundef nonnull %8) #11
  %43 = getelementptr i8, ptr %17, i64 -8
  store i8 %42, ptr %43, align 8
  %44 = getelementptr i8, ptr %17, i64 -7
  store i8 %41, ptr %44, align 1
  call void @llvm.lifetime.end.p0(i64 4, ptr nonnull %9) #11
  call void @llvm.lifetime.end.p0(i64 24, ptr nonnull %8) #11
  call void @llvm.lifetime.end.p0(i64 24, ptr nonnull %7) #11
  call void @llvm.lifetime.end.p0(i64 24, ptr nonnull %6) #11
  ret void
}